; Function Attrs: nounwind uwtable
define noalias nonnull ptr @l_Lean_Meta_SplitIf_mkDischarge_x3f___boxed(ptr noundef %0, ptr noundef %1, ptr noundef %2, ptr noundef %3, ptr noundef %4, ptr noundef %5) #1 {
  %7 = ptrtoint ptr %0 to i64
  %8 = lshr i64 %7, 1
  %9 = trunc i64 %8 to i8
  %10 = and i64 %7, 1
  %.not = icmp eq i64 %10, 0
  br i1 %.not, label %11, label %lean_dec.exit13

11:                                               ; preds = %6
  %12 = load i32, ptr %0, align 4, !tbaa !4
  %13 = icmp sgt i32 %12, 1
  br i1 %13, label %14, label %16, !prof !9

14:                                               ; preds = %11
  %15 = add nsw i32 %12, -1
  store i32 %15, ptr %0, align 4, !tbaa !4
  br label %lean_dec.exit13

16:                                               ; preds = %11
  %.not.i = icmp eq i32 %12, 0
  br i1 %.not.i, label %lean_dec.exit13, label %17

17:                                               ; preds = %16
  tail call void @lean_dec_ref_cold(ptr noundef nonnull %0) #7
  br label %lean_dec.exit13

lean_dec.exit13:                                  ; preds = %17, %16, %14, %6
  %18 = tail call ptr @l_Lean_Meta_SplitIf_mkDischarge_x3f(i8 noundef zeroext %9, ptr noundef %1, ptr poison, ptr poison, ptr poison, ptr noundef %5)
  %19 = ptrtoint ptr %4 to i64
  %20 = and i64 %19, 1
  %.not20 = icmp eq i64 %20, 0
  br i1 %.not20, label %21, label %lean_dec.exit12

21:                                               ; preds = %lean_dec.exit13
  %22 = load i32, ptr %4, align 4, !tbaa !4
  %23 = icmp sgt i32 %22, 1
  br i1 %23, label %24, label %26, !prof !9

24:                                               ; preds = %21
  %25 = add nsw i32 %22, -1
  store i32 %25, ptr %4, align 4, !tbaa !4
  br label %lean_dec.exit12

26:                                               ; preds = %21
  %.not.i14 = icmp eq i32 %22, 0
  br i1 %.not.i14, label %lean_dec.exit12, label %27

27:                                               ; preds = %26
  tail call void @lean_dec_ref_cold(ptr noundef nonnull %4) #7
  br label %lean_dec.exit12

lean_dec.exit12:                                  ; preds = %27, %26, %24, %lean_dec.exit13
  %28 = ptrtoint ptr %3 to i64
  %29 = and i64 %28, 1
  %.not21 = icmp eq i64 %29, 0
  br i1 %.not21, label %30, label %lean_dec.exit11

30:                                               ; preds = %lean_dec.exit12
  %31 = load i32, ptr %3, align 4, !tbaa !4
  %32 = icmp sgt i32 %31, 1
  br i1 %32, label %33, label %35, !prof !9

33:                                               ; preds = %30
  %34 = add nsw i32 %31, -1
  store i32 %34, ptr %3, align 4, !tbaa !4
  br label %lean_dec.exit11

35:                                               ; preds = %30
  %.not.i16 = icmp eq i32 %31, 0
  br i1 %.not.i16, label %lean_dec.exit11, label %36

36:                                               ; preds = %35
  tail call void @lean_dec_ref_cold(ptr noundef nonnull %3) #7
  br label %lean_dec.exit11

lean_dec.exit11:                                  ; preds = %36, %35, %33, %lean_dec.exit12
  %37 = ptrtoint ptr %2 to i64
  %38 = and i64 %37, 1
  %.not22 = icmp eq i64 %38, 0
  br i1 %.not22, label %39, label %lean_dec.exit

39:                                               ; preds = %lean_dec.exit11
  %40 = load i32, ptr %2, align 4, !tbaa !4
  %41 = icmp sgt i32 %40, 1
  br i1 %41, label %42, label %44, !prof !9

42:                                               ; preds = %39
  %43 = add nsw i32 %40, -1
  store i32 %43, ptr %2, align 4, !tbaa !4
  br label %lean_dec.exit

44:                                               ; preds = %39
  %.not.i18 = icmp eq i32 %40, 0
  br i1 %.not.i18, label %lean_dec.exit, label %45

45:                                               ; preds = %44
  tail call void @lean_dec_ref_cold(ptr noundef nonnull %2) #7
  br label %lean_dec.exit

lean_dec.exit:                                    ; preds = %45, %44, %42, %lean_dec.exit11
  ret ptr %18
}